(lp0
Vp.t.
p1
aVa.C.
p2
aVD.P.R.
p3
aVp.v.
p4
aVn.d.r.
p5
aVc.a.p.
p6
aVsv.
p7
aVi.e.
p8
aVe.g.
p9
aVs.l.
p10
aVst.
p11
aVn.e.
p12
aVcc.
p13
aVcfr.
p14
aVn.p.
p15
aVecc.
p16
aVndr.
p17
aVc.p.
p18
aVc.t.
p19
aVv.o.
p20
aVk.o.
p21
aVmq.
p22
aVs.v.
p23
aVN.d.R.
p24
aVs.t.
p25
aVect.
p26
aVs.p.a.
p27
aVd.C.
p28
aVn.d.t.
p29
aVo.k.
p30
aVs.r.l.
p31
aVetc
p32
aVd.d.l.
p33
aVetc.
p34
aVd.p.r.
p35
a.