(dp0
VwordsTest
p1
I5000000
sVsogliaMiglioramento
p2
F0.05
sVcorpusTraining
p3
S'//mnt//8tera//shareclic//lucaNgrams//Patrizio//testerTokenizers//corpusTraining'
p4
sVpunkt
p5
S'//mnt//8tera//shareclic//lucaNgrams//Patrizio//testerTokenizers//punkt'
p6
sVfinestraCorpusIn
p7
I150
sVpaisa
p8
S'//mnt//8tera//shareclic//lucaNgrams//Patrizio//paisa.annotated.CoNLL.utf8'
p9
sVdati
p10
S'//mnt//8tera//shareclic//lucaNgrams//Patrizio//testerTokenizers//dati'
p11
sVpassoTraining
p12
I50000
sVtestFiles
p13
S'//mnt//8tera//shareclic//lucaNgrams//Patrizio//testerTokenizers//testFiles'
p14
sVwordsTraining
p15
I2500000
sVcorpus
p16
S'//mnt//8tera//shareclic//lucaNgrams//Patrizio//testerTokenizers//corpus'
p17
sVmorphit
p18
S'//mnt//8tera//shareclic//lucaNgrams//Patrizio//testerTokenizers//dati//morphit.utf8.txt'
p19
s.