ccollections
defaultdict
p0
(c__builtin__
list
p1
tp2
Rp3
Vnltk.tokenize.TreebankWordTokenizer
p4
(lp5
(dp6
VparamW
p7
VSPACE
p8
sVdim
p9
I2251
sVtipoTest
p10
VPARAMS
p11
sVscore
p12
F0.8874934504818984
sVparamS
p13
VPARAG_2
p14
sVeuristicaNoZero
p15
I01
sVattributiTok
p16
NsVfileTest
p17
VNONE - LITE VERSION
p18
sa(dp19
g7
VAFTER
p20
sg9
I2251
sg10
g11
sg12
F0.8849885723607405
sg13
g14
sg15
I01
sg16
Nsg17
g18
sa(dp21
g7
VBEFORE
p22
sg9
I2251
sg10
g11
sg12
F0.8858610816018
sg13
g14
sg15
I01
sg16
Nsg17
g18
sa(dp23
g7
g8
sg9
I2251
sg10
g11
sg12
F0.8819467121456143
sg13
VNONE
p24
sg15
I01
sg16
Nsg17
g18
sa(dp25
g7
g20
sg9
I2251
sg10
g11
sg12
F0.8849885723607405
sg13
g24
sg15
I01
sg16
Nsg17
g18
sa(dp26
g7
g22
sg9
I2251
sg10
g11
sg12
F0.8858610816018
sg13
g24
sg15
I01
sg16
Nsg17
g18
sa(dp27
g7
g8
sg9
I2251
sg10
g11
sg12
F0.8874934504818984
sg13
VPARAG
p28
sg15
I01
sg16
Nsg17
g18
sa(dp29
g7
g20
sg9
I2251
sg10
g11
sg12
F0.8849885723607405
sg13
g28
sg15
I01
sg16
Nsg17
g18
sa(dp30
g7
g22
sg9
I2251
sg10
g11
sg12
F0.8858610816018
sg13
g28
sg15
I01
sg16
Nsg17
g18
sa(dp31
g7
g8
sg9
I2251
sg10
g11
sg12
F0.8874930769748937
sg13
g8
sg15
I01
sg16
Nsg17
g18
sa(dp32
g7
g20
sg9
I2251
sg10
g11
sg12
F0.8849885723607405
sg13
g8
sg15
I01
sg16
Nsg17
g18
sa(dp33
g7
g22
sg9
I2251
sg10
g11
sg12
F0.8858610816018
sg13
g8
sg15
I01
sg16
Nsg17
g18
sa(dp34
g7
g8
sg9
I2251
sg10
g11
sg12
F0.8874934504818984
sg13
VTABS
p35
sg15
I01
sg16
Nsg17
g18
sa(dp36
g7
g20
sg9
I2251
sg10
g11
sg12
F0.8849885723607405
sg13
g35
sg15
I01
sg16
Nsg17
g18
sa(dp37
g7
g22
sg9
I2251
sg10
g11
sg12
F0.8858610816018
sg13
g35
sg15
I01
sg16
Nsg17
g18
sa(dp38
g7
g8
sg9
I2251
sg10
g11
sg12
F0.8874934504818984
sg13
VNEW LINE
p39
sg15
I01
sg16
Nsg17
g18
sa(dp40
g7
g20
sg9
I2251
sg10
g11
sg12
F0.8849885723607405
sg13
g39
sg15
I01
sg16
Nsg17
g18
sa(dp41
g7
g22
sg9
I2251
sg10
g11
sg12
F0.8858610816018
sg13
g39
sg15
I01
sg16
Nsg17
g18
sa(dp42
g7
VSPACE
p43
sg9
I2251
sg10
VDIMS
p44
sg12
F0.8874930769748937
sg13
g43
sg15
I01
sg16
Nsg17
g18
sa(dp45
g7
g43
sg9
I1997
sg10
g44
sg12
F0.8871520483409393
sg13
g43
sg15
I01
sg16
Nsg17
g18
sa(dp46
g7
g43
sg9
I1850
sg10
g44
sg12
F0.8887889304255888
sg13
g43
sg15
I01
sg16
Nsg17
g18
sas.