ccollections
defaultdict
p0
(c__builtin__
list
p1
tp2
Rp3
VBlanklineTokenizer__TestREWordTok_patter_w_gaps_F_discardEmpty_F_flags_reMULTI
p4
(lp5
(dp6
VparamW
p7
VSPACE
p8
sVdim
p9
I2251
sVtipoTest
p10
VPARAMS
p11
sVscore
p12
F0.0
sVparamS
p13
VPARAG_2
p14
sVeuristicaNoZero
p15
I00
sVattributiTok
p16
(dp17
VdiscardEmpty
p18
I00
sVflags
p19
Vre.MULTI
p20
sVgap
p21
I00
ssVfileTest
p22
VNONE - LITE VERSION
p23
sa(dp24
g7
VAFTER
p25
sg9
I2251
sg10
g11
sg12
F0.0
sg13
g14
sg15
I00
sg16
g17
sg22
g23
sa(dp26
g7
VBEFORE
p27
sg9
I2251
sg10
g11
sg12
F0.0
sg13
g14
sg15
I00
sg16
g17
sg22
g23
sa(dp28
g7
g8
sg9
I2251
sg10
g11
sg12
F0.0
sg13
VNONE
p29
sg15
I00
sg16
g17
sg22
g23
sa(dp30
g7
g25
sg9
I2251
sg10
g11
sg12
F0.0
sg13
g29
sg15
I00
sg16
g17
sg22
g23
sa(dp31
g7
g27
sg9
I2251
sg10
g11
sg12
F0.0
sg13
g29
sg15
I00
sg16
g17
sg22
g23
sa(dp32
g7
g8
sg9
I2251
sg10
g11
sg12
F0.0
sg13
VPARAG
p33
sg15
I00
sg16
g17
sg22
g23
sa(dp34
g7
g25
sg9
I2251
sg10
g11
sg12
F0.0
sg13
g33
sg15
I00
sg16
g17
sg22
g23
sa(dp35
g7
g27
sg9
I2251
sg10
g11
sg12
F0.0
sg13
g33
sg15
I00
sg16
g17
sg22
g23
sa(dp36
g7
g8
sg9
I2251
sg10
g11
sg12
F0.0
sg13
g8
sg15
I00
sg16
g17
sg22
g23
sa(dp37
g7
g25
sg9
I2251
sg10
g11
sg12
F0.0
sg13
g8
sg15
I00
sg16
g17
sg22
g23
sa(dp38
g7
g27
sg9
I2251
sg10
g11
sg12
F0.0
sg13
g8
sg15
I00
sg16
g17
sg22
g23
sa(dp39
g7
g8
sg9
I2251
sg10
g11
sg12
F0.0
sg13
VTABS
p40
sg15
I00
sg16
g17
sg22
g23
sa(dp41
g7
g25
sg9
I2251
sg10
g11
sg12
F0.0
sg13
g40
sg15
I00
sg16
g17
sg22
g23
sa(dp42
g7
g27
sg9
I2251
sg10
g11
sg12
F0.0
sg13
g40
sg15
I00
sg16
g17
sg22
g23
sa(dp43
g7
g8
sg9
I2251
sg10
g11
sg12
F0.0
sg13
VNEW LINE
p44
sg15
I00
sg16
g17
sg22
g23
sa(dp45
g7
g25
sg9
I2251
sg10
g11
sg12
F0.0
sg13
g44
sg15
I00
sg16
g17
sg22
g23
sa(dp46
g7
g27
sg9
I2251
sg10
g11
sg12
F0.0
sg13
g44
sg15
I00
sg16
g17
sg22
g23
sa(dp47
g7
VSPACE
p48
sg9
I2251
sg10
VDIMS
p49
sg12
F0.0
sg13
g48
sg15
I00
sg16
g17
sg22
g23
sa(dp50
g7
g48
sg9
I1997
sg10
g49
sg12
F0.0
sg13
g48
sg15
I00
sg16
g17
sg22
g23
sa(dp51
g7
g48
sg9
I1850
sg10
g49
sg12
F0.0
sg13
g48
sg15
I00
sg16
g17
sg22
g23
sasVBlanklineTokenizer__TestREWordTok_patter_w_gaps_F_discard_empty_F_flags_reUNI
p52
(lp53
(dp54
g7
g8
sg9
I2251
sg10
g11
sg12
F0.0
sg13
g14
sg15
I00
sg16
(dp55
Vdiscard_empty
p56
I00
sVflags
p57
Vre.UNI
p58
sVgap
p59
I00
ssg22
g23
sa(dp60
g7
g25
sg9
I2251
sg10
g11
sg12
F0.0
sg13
g14
sg15
I00
sg16
g55
sg22
g23
sa(dp61
g7
g27
sg9
I2251
sg10
g11
sg12
F0.0
sg13
g14
sg15
I00
sg16
g55
sg22
g23
sa(dp62
g7
g8
sg9
I2251
sg10
g11
sg12
F0.0
sg13
g29
sg15
I00
sg16
g55
sg22
g23
sa(dp63
g7
g25
sg9
I2251
sg10
g11
sg12
F0.0
sg13
g29
sg15
I00
sg16
g55
sg22
g23
sa(dp64
g7
g27
sg9
I2251
sg10
g11
sg12
F0.0
sg13
g29
sg15
I00
sg16
g55
sg22
g23
sa(dp65
g7
g8
sg9
I2251
sg10
g11
sg12
F0.0
sg13
g33
sg15
I00
sg16
g55
sg22
g23
sa(dp66
g7
g25
sg9
I2251
sg10
g11
sg12
F0.0
sg13
g33
sg15
I00
sg16
g55
sg22
g23
sa(dp67
g7
g27
sg9
I2251
sg10
g11
sg12
F0.0
sg13
g33
sg15
I00
sg16
g55
sg22
g23
sa(dp68
g7
g8
sg9
I2251
sg10
g11
sg12
F0.0
sg13
g8
sg15
I00
sg16
g55
sg22
g23
sa(dp69
g7
g25
sg9
I2251
sg10
g11
sg12
F0.0
sg13
g8
sg15
I00
sg16
g55
sg22
g23
sa(dp70
g7
g27
sg9
I2251
sg10
g11
sg12
F0.0
sg13
g8
sg15
I00
sg16
g55
sg22
g23
sa(dp71
g7
g8
sg9
I2251
sg10
g11
sg12
F0.0
sg13
g40
sg15
I00
sg16
g55
sg22
g23
sa(dp72
g7
g25
sg9
I2251
sg10
g11
sg12
F0.0
sg13
g40
sg15
I00
sg16
g55
sg22
g23
sa(dp73
g7
g27
sg9
I2251
sg10
g11
sg12
F0.0
sg13
g40
sg15
I00
sg16
g55
sg22
g23
sa(dp74
g7
g8
sg9
I2251
sg10
g11
sg12
F0.0
sg13
g44
sg15
I00
sg16
g55
sg22
g23
sa(dp75
g7
g25
sg9
I2251
sg10
g11
sg12
F0.0
sg13
g44
sg15
I00
sg16
g55
sg22
g23
sa(dp76
g7
g27
sg9
I2251
sg10
g11
sg12
F0.0
sg13
g44
sg15
I00
sg16
g55
sg22
g23
sa(dp77
g7
g48
sg9
I2251
sg10
g49
sg12
F0.0
sg13
g48
sg15
I00
sg16
g55
sg22
g23
sa(dp78
g7
g48
sg9
I1997
sg10
g49
sg12
F0.0
sg13
g48
sg15
I00
sg16
g55
sg22
g23
sa(dp79
g7
g48
sg9
I1850
sg10
g49
sg12
F0.0
sg13
g48
sg15
I00
sg16
g55
sg22
g23
sasVBlanklineTokenizer__TestREWordTok_patter_w_gaps_T_discardEmpty_T_flags_reMULTI
p80
(lp81
(dp82
g7
g8
sg9
I2251
sg10
g11
sg12
F1.0
sg13
g14
sg15
I01
sg16
(dp83
VdiscardEmpty
p84
I01
sVflags
p85
Vre.MULTI
p86
sVgap
p87
I01
ssg22
g23
sa(dp88
g7
g25
sg9
I2251
sg10
g11
sg12
F1.0
sg13
g14
sg15
I01
sg16
g83
sg22
g23
sa(dp89
g7
g27
sg9
I2251
sg10
g11
sg12
F1.0
sg13
g14
sg15
I01
sg16
g83
sg22
g23
sa(dp90
g7
g8
sg9
I2251
sg10
g11
sg12
F0.0
sg13
g29
sg15
I00
sg16
g83
sg22
g23
sa(dp91
g7
g25
sg9
I2251
sg10
g11
sg12
F0.0
sg13
g29
sg15
I00
sg16
g83
sg22
g23
sa(dp92
g7
g27
sg9
I2251
sg10
g11
sg12
F0.0
sg13
g29
sg15
I00
sg16
g83
sg22
g23
sa(dp93
g7
g8
sg9
I2251
sg10
g11
sg12
F0.0
sg13
g33
sg15
I00
sg16
g83
sg22
g23
sa(dp94
g7
g25
sg9
I2251
sg10
g11
sg12
F0.0
sg13
g33
sg15
I00
sg16
g83
sg22
g23
sa(dp95
g7
g27
sg9
I2251
sg10
g11
sg12
F1.0
sg13
g33
sg15
I01
sg16
g83
sg22
g23
sa(dp96
g7
g8
sg9
I2251
sg10
g11
sg12
F0.0
sg13
g8
sg15
I00
sg16
g83
sg22
g23
sa(dp97
g7
g25
sg9
I2251
sg10
g11
sg12
F0.0
sg13
g8
sg15
I00
sg16
g83
sg22
g23
sa(dp98
g7
g27
sg9
I2251
sg10
g11
sg12
F0.0
sg13
g8
sg15
I00
sg16
g83
sg22
g23
sa(dp99
g7
g8
sg9
I2251
sg10
g11
sg12
F0.0
sg13
g40
sg15
I00
sg16
g83
sg22
g23
sa(dp100
g7
g25
sg9
I2251
sg10
g11
sg12
F0.0
sg13
g40
sg15
I00
sg16
g83
sg22
g23
sa(dp101
g7
g27
sg9
I2251
sg10
g11
sg12
F0.0
sg13
g40
sg15
I00
sg16
g83
sg22
g23
sa(dp102
g7
g8
sg9
I2251
sg10
g11
sg12
F0.0
sg13
g44
sg15
I00
sg16
g83
sg22
g23
sa(dp103
g7
g25
sg9
I2251
sg10
g11
sg12
F0.0
sg13
g44
sg15
I00
sg16
g83
sg22
g23
sa(dp104
g7
g27
sg9
I2251
sg10
g11
sg12
F1.0
sg13
g44
sg15
I01
sg16
g83
sg22
g23
sa(dp105
g7
g48
sg9
I2251
sg10
g49
sg12
F0.0
sg13
g48
sg15
I00
sg16
g83
sg22
g23
sa(dp106
g7
g48
sg9
I1997
sg10
g49
sg12
F0.0
sg13
g48
sg15
I00
sg16
g83
sg22
g23
sa(dp107
g7
g48
sg9
I1850
sg10
g49
sg12
F0.0
sg13
g48
sg15
I00
sg16
g83
sg22
g23
sasVBlanklineTokenizer__TestREWordTok_patter_w_gaps_T_discardEmpty_T_flags_reDOTALL
p108
(lp109
(dp110
g7
g8
sg9
I2251
sg10
g11
sg12
F1.0
sg13
g14
sg15
I01
sg16
(dp111
VdiscardEmpty
p112
I01
sVflags
p113
Vre.DOTALL
p114
sVgap
p115
I01
ssg22
g23
sa(dp116
g7
g25
sg9
I2251
sg10
g11
sg12
F1.0
sg13
g14
sg15
I01
sg16
g111
sg22
g23
sa(dp117
g7
g27
sg9
I2251
sg10
g11
sg12
F1.0
sg13
g14
sg15
I01
sg16
g111
sg22
g23
sa(dp118
g7
g8
sg9
I2251
sg10
g11
sg12
F0.0
sg13
g29
sg15
I00
sg16
g111
sg22
g23
sa(dp119
g7
g25
sg9
I2251
sg10
g11
sg12
F0.0
sg13
g29
sg15
I00
sg16
g111
sg22
g23
sa(dp120
g7
g27
sg9
I2251
sg10
g11
sg12
F0.0
sg13
g29
sg15
I00
sg16
g111
sg22
g23
sa(dp121
g7
g8
sg9
I2251
sg10
g11
sg12
F0.0
sg13
g33
sg15
I00
sg16
g111
sg22
g23
sa(dp122
g7
g25
sg9
I2251
sg10
g11
sg12
F0.0
sg13
g33
sg15
I00
sg16
g111
sg22
g23
sa(dp123
g7
g27
sg9
I2251
sg10
g11
sg12
F1.0
sg13
g33
sg15
I01
sg16
g111
sg22
g23
sasVBlanklineTokenizer__TestREWordTok_patter_w_gaps_T_discardEmpty_T_flags_reUNI
p124
(lp125
(dp126
g7
g8
sg9
I2251
sg10
g11
sg12
F1.0
sg13
g14
sg15
I01
sg16
(dp127
VdiscardEmpty
p128
I01
sVflags
p129
Vre.UNI
p130
sVgap
p131
I01
ssg22
g23
sa(dp132
g7
g25
sg9
I2251
sg10
g11
sg12
F1.0
sg13
g14
sg15
I01
sg16
g127
sg22
g23
sa(dp133
g7
g27
sg9
I2251
sg10
g11
sg12
F1.0
sg13
g14
sg15
I01
sg16
g127
sg22
g23
sa(dp134
g7
g8
sg9
I2251
sg10
g11
sg12
F0.0
sg13
g29
sg15
I00
sg16
g127
sg22
g23
sa(dp135
g7
g25
sg9
I2251
sg10
g11
sg12
F0.0
sg13
g29
sg15
I00
sg16
g127
sg22
g23
sa(dp136
g7
g27
sg9
I2251
sg10
g11
sg12
F0.0
sg13
g29
sg15
I00
sg16
g127
sg22
g23
sa(dp137
g7
g8
sg9
I2251
sg10
g11
sg12
F0.0
sg13
g33
sg15
I00
sg16
g127
sg22
g23
sa(dp138
g7
g25
sg9
I2251
sg10
g11
sg12
F0.0
sg13
g33
sg15
I00
sg16
g127
sg22
g23
sa(dp139
g7
g27
sg9
I2251
sg10
g11
sg12
F1.0
sg13
g33
sg15
I01
sg16
g127
sg22
g23
sa(dp140
g7
g8
sg9
I2251
sg10
g11
sg12
F0.0
sg13
g8
sg15
I00
sg16
g127
sg22
g23
sa(dp141
g7
g25
sg9
I2251
sg10
g11
sg12
F0.0
sg13
g8
sg15
I00
sg16
g127
sg22
g23
sa(dp142
g7
g27
sg9
I2251
sg10
g11
sg12
F0.0
sg13
g8
sg15
I00
sg16
g127
sg22
g23
sa(dp143
g7
g8
sg9
I2251
sg10
g11
sg12
F0.0
sg13
g40
sg15
I00
sg16
g127
sg22
g23
sa(dp144
g7
g25
sg9
I2251
sg10
g11
sg12
F0.0
sg13
g40
sg15
I00
sg16
g127
sg22
g23
sa(dp145
g7
g27
sg9
I2251
sg10
g11
sg12
F0.0
sg13
g40
sg15
I00
sg16
g127
sg22
g23
sa(dp146
g7
g8
sg9
I2251
sg10
g11
sg12
F0.0
sg13
g44
sg15
I00
sg16
g127
sg22
g23
sa(dp147
g7
g25
sg9
I2251
sg10
g11
sg12
F0.0
sg13
g44
sg15
I00
sg16
g127
sg22
g23
sa(dp148
g7
g27
sg9
I2251
sg10
g11
sg12
F1.0
sg13
g44
sg15
I01
sg16
g127
sg22
g23
sa(dp149
g7
g48
sg9
I2251
sg10
g49
sg12
F0.0
sg13
g48
sg15
I00
sg16
g127
sg22
g23
sa(dp150
g7
g48
sg9
I1997
sg10
g49
sg12
F0.0
sg13
g48
sg15
I00
sg16
g127
sg22
g23
sa(dp151
g7
g48
sg9
I1850
sg10
g49
sg12
F0.0
sg13
g48
sg15
I00
sg16
g127
sg22
g23
sasVBlanklineTokenizer__TestREWordTok_patter_w_gaps_F_discardEmpty_F_flags_reDOTALL
p152
(lp153
(dp154
g7
g8
sg9
I2251
sg10
g11
sg12
F0.0
sg13
g14
sg15
I00
sg16
(dp155
VdiscardEmpty
p156
I00
sVflags
p157
Vre.DOTALL
p158
sVgap
p159
I00
ssg22
g23
sa(dp160
g7
g25
sg9
I2251
sg10
g11
sg12
F0.0
sg13
g14
sg15
I00
sg16
g155
sg22
g23
sa(dp161
g7
g27
sg9
I2251
sg10
g11
sg12
F0.0
sg13
g14
sg15
I00
sg16
g155
sg22
g23
sa(dp162
g7
g8
sg9
I2251
sg10
g11
sg12
F0.0
sg13
g29
sg15
I00
sg16
g155
sg22
g23
sa(dp163
g7
g25
sg9
I2251
sg10
g11
sg12
F0.0
sg13
g29
sg15
I00
sg16
g155
sg22
g23
sa(dp164
g7
g27
sg9
I2251
sg10
g11
sg12
F0.0
sg13
g29
sg15
I00
sg16
g155
sg22
g23
sa(dp165
g7
g8
sg9
I2251
sg10
g11
sg12
F0.0
sg13
g33
sg15
I00
sg16
g155
sg22
g23
sa(dp166
g7
g25
sg9
I2251
sg10
g11
sg12
F0.0
sg13
g33
sg15
I00
sg16
g155
sg22
g23
sa(dp167
g7
g27
sg9
I2251
sg10
g11
sg12
F0.0
sg13
g33
sg15
I00
sg16
g155
sg22
g23
sa(dp168
g7
g8
sg9
I2251
sg10
g11
sg12
F0.0
sg13
g8
sg15
I00
sg16
g155
sg22
g23
sa(dp169
g7
g25
sg9
I2251
sg10
g11
sg12
F0.0
sg13
g8
sg15
I00
sg16
g155
sg22
g23
sa(dp170
g7
g27
sg9
I2251
sg10
g11
sg12
F0.0
sg13
g8
sg15
I00
sg16
g155
sg22
g23
sa(dp171
g7
g8
sg9
I2251
sg10
g11
sg12
F0.0
sg13
g40
sg15
I00
sg16
g155
sg22
g23
sa(dp172
g7
g25
sg9
I2251
sg10
g11
sg12
F0.0
sg13
g40
sg15
I00
sg16
g155
sg22
g23
sa(dp173
g7
g27
sg9
I2251
sg10
g11
sg12
F0.0
sg13
g40
sg15
I00
sg16
g155
sg22
g23
sa(dp174
g7
g8
sg9
I2251
sg10
g11
sg12
F0.0
sg13
g44
sg15
I00
sg16
g155
sg22
g23
sa(dp175
g7
g25
sg9
I2251
sg10
g11
sg12
F0.0
sg13
g44
sg15
I00
sg16
g155
sg22
g23
sa(dp176
g7
g27
sg9
I2251
sg10
g11
sg12
F0.0
sg13
g44
sg15
I00
sg16
g155
sg22
g23
sa(dp177
g7
g48
sg9
I2251
sg10
g49
sg12
F0.0
sg13
g48
sg15
I00
sg16
g155
sg22
g23
sa(dp178
g7
g48
sg9
I1997
sg10
g49
sg12
F0.0
sg13
g48
sg15
I00
sg16
g155
sg22
g23
sa(dp179
g7
g48
sg9
I1850
sg10
g49
sg12
F0.0
sg13
g48
sg15
I00
sg16
g155
sg22
g23
sasVBlanklineTokenizer__TestREWordTok_patter_w_gaps_F_discard_empty_T_flags_reUNI
p180
(lp181
(dp182
g7
g8
sg9
I2251
sg10
g11
sg12
F0.0
sg13
g14
sg15
I00
sg16
(dp183
Vdiscard_empty
p184
I01
sVflags
p185
Vre.UNI
p186
sVgap
p187
I00
ssg22
g23
sa(dp188
g7
g25
sg9
I2251
sg10
g11
sg12
F0.0
sg13
g14
sg15
I00
sg16
g183
sg22
g23
sa(dp189
g7
g27
sg9
I2251
sg10
g11
sg12
F0.0
sg13
g14
sg15
I00
sg16
g183
sg22
g23
sa(dp190
g7
g8
sg9
I2251
sg10
g11
sg12
F0.0
sg13
g29
sg15
I00
sg16
g183
sg22
g23
sa(dp191
g7
g25
sg9
I2251
sg10
g11
sg12
F0.0
sg13
g29
sg15
I00
sg16
g183
sg22
g23
sa(dp192
g7
g27
sg9
I2251
sg10
g11
sg12
F0.0
sg13
g29
sg15
I00
sg16
g183
sg22
g23
sa(dp193
g7
g8
sg9
I2251
sg10
g11
sg12
F0.0
sg13
g33
sg15
I00
sg16
g183
sg22
g23
sa(dp194
g7
g25
sg9
I2251
sg10
g11
sg12
F0.0
sg13
g33
sg15
I00
sg16
g183
sg22
g23
sa(dp195
g7
g27
sg9
I2251
sg10
g11
sg12
F0.0
sg13
g33
sg15
I00
sg16
g183
sg22
g23
sa(dp196
g7
g8
sg9
I2251
sg10
g11
sg12
F0.0
sg13
g8
sg15
I00
sg16
g183
sg22
g23
sa(dp197
g7
g25
sg9
I2251
sg10
g11
sg12
F0.0
sg13
g8
sg15
I00
sg16
g183
sg22
g23
sa(dp198
g7
g27
sg9
I2251
sg10
g11
sg12
F0.0
sg13
g8
sg15
I00
sg16
g183
sg22
g23
sa(dp199
g7
g8
sg9
I2251
sg10
g11
sg12
F0.0
sg13
g40
sg15
I00
sg16
g183
sg22
g23
sa(dp200
g7
g25
sg9
I2251
sg10
g11
sg12
F0.0
sg13
g40
sg15
I00
sg16
g183
sg22
g23
sa(dp201
g7
g27
sg9
I2251
sg10
g11
sg12
F0.0
sg13
g40
sg15
I00
sg16
g183
sg22
g23
sa(dp202
g7
g8
sg9
I2251
sg10
g11
sg12
F0.0
sg13
g44
sg15
I00
sg16
g183
sg22
g23
sa(dp203
g7
g25
sg9
I2251
sg10
g11
sg12
F0.0
sg13
g44
sg15
I00
sg16
g183
sg22
g23
sa(dp204
g7
g27
sg9
I2251
sg10
g11
sg12
F0.0
sg13
g44
sg15
I00
sg16
g183
sg22
g23
sa(dp205
g7
g48
sg9
I2251
sg10
g49
sg12
F0.0
sg13
g48
sg15
I00
sg16
g183
sg22
g23
sa(dp206
g7
g48
sg9
I1997
sg10
g49
sg12
F0.0
sg13
g48
sg15
I00
sg16
g183
sg22
g23
sa(dp207
g7
g48
sg9
I1850
sg10
g49
sg12
F0.0
sg13
g48
sg15
I00
sg16
g183
sg22
g23
sasVBlanklineTokenizer__TestREWordTok_patter_w_gaps_F_discardEmpty_T_flags_reDOTALL
p208
(lp209
(dp210
g7
g8
sg9
I2251
sg10
g11
sg12
F0.0
sg13
g14
sg15
I00
sg16
(dp211
VdiscardEmpty
p212
I01
sVflags
p213
Vre.DOTALL
p214
sVgap
p215
I00
ssg22
g23
sa(dp216
g7
g25
sg9
I2251
sg10
g11
sg12
F0.0
sg13
g14
sg15
I00
sg16
g211
sg22
g23
sa(dp217
g7
g27
sg9
I2251
sg10
g11
sg12
F0.0
sg13
g14
sg15
I00
sg16
g211
sg22
g23
sa(dp218
g7
g8
sg9
I2251
sg10
g11
sg12
F0.0
sg13
g29
sg15
I00
sg16
g211
sg22
g23
sa(dp219
g7
g25
sg9
I2251
sg10
g11
sg12
F0.0
sg13
g29
sg15
I00
sg16
g211
sg22
g23
sa(dp220
g7
g27
sg9
I2251
sg10
g11
sg12
F0.0
sg13
g29
sg15
I00
sg16
g211
sg22
g23
sa(dp221
g7
g8
sg9
I2251
sg10
g11
sg12
F0.0
sg13
g33
sg15
I00
sg16
g211
sg22
g23
sa(dp222
g7
g25
sg9
I2251
sg10
g11
sg12
F0.0
sg13
g33
sg15
I00
sg16
g211
sg22
g23
sa(dp223
g7
g27
sg9
I2251
sg10
g11
sg12
F0.0
sg13
g33
sg15
I00
sg16
g211
sg22
g23
sa(dp224
g7
g8
sg9
I2251
sg10
g11
sg12
F0.0
sg13
g8
sg15
I00
sg16
g211
sg22
g23
sa(dp225
g7
g25
sg9
I2251
sg10
g11
sg12
F0.0
sg13
g8
sg15
I00
sg16
g211
sg22
g23
sa(dp226
g7
g27
sg9
I2251
sg10
g11
sg12
F0.0
sg13
g8
sg15
I00
sg16
g211
sg22
g23
sa(dp227
g7
g8
sg9
I2251
sg10
g11
sg12
F0.0
sg13
g40
sg15
I00
sg16
g211
sg22
g23
sa(dp228
g7
g25
sg9
I2251
sg10
g11
sg12
F0.0
sg13
g40
sg15
I00
sg16
g211
sg22
g23
sa(dp229
g7
g27
sg9
I2251
sg10
g11
sg12
F0.0
sg13
g40
sg15
I00
sg16
g211
sg22
g23
sa(dp230
g7
g8
sg9
I2251
sg10
g11
sg12
F0.0
sg13
g44
sg15
I00
sg16
g211
sg22
g23
sa(dp231
g7
g25
sg9
I2251
sg10
g11
sg12
F0.0
sg13
g44
sg15
I00
sg16
g211
sg22
g23
sa(dp232
g7
g27
sg9
I2251
sg10
g11
sg12
F0.0
sg13
g44
sg15
I00
sg16
g211
sg22
g23
sa(dp233
g7
g48
sg9
I2251
sg10
g49
sg12
F0.0
sg13
g48
sg15
I00
sg16
g211
sg22
g23
sa(dp234
g7
g48
sg9
I1997
sg10
g49
sg12
F0.0
sg13
g48
sg15
I00
sg16
g211
sg22
g23
sa(dp235
g7
g48
sg9
I1850
sg10
g49
sg12
F0.0
sg13
g48
sg15
I00
sg16
g211
sg22
g23
sasVBlanklineTokenizer__TestREWordTok_patter_w_gaps_F_discardEmpty_T_flags_reMULTI
p236
(lp237
(dp238
g7
g8
sg9
I2251
sg10
g11
sg12
F0.0
sg13
g14
sg15
I00
sg16
(dp239
VdiscardEmpty
p240
I01
sVflags
p241
Vre.MULTI
p242
sVgap
p243
I00
ssg22
g23
sa(dp244
g7
g25
sg9
I2251
sg10
g11
sg12
F0.0
sg13
g14
sg15
I00
sg16
g239
sg22
g23
sa(dp245
g7
g27
sg9
I2251
sg10
g11
sg12
F0.0
sg13
g14
sg15
I00
sg16
g239
sg22
g23
sa(dp246
g7
g8
sg9
I2251
sg10
g11
sg12
F0.0
sg13
g29
sg15
I00
sg16
g239
sg22
g23
sa(dp247
g7
g25
sg9
I2251
sg10
g11
sg12
F0.0
sg13
g29
sg15
I00
sg16
g239
sg22
g23
sa(dp248
g7
g27
sg9
I2251
sg10
g11
sg12
F0.0
sg13
g29
sg15
I00
sg16
g239
sg22
g23
sa(dp249
g7
g8
sg9
I2251
sg10
g11
sg12
F0.0
sg13
g33
sg15
I00
sg16
g239
sg22
g23
sa(dp250
g7
g25
sg9
I2251
sg10
g11
sg12
F0.0
sg13
g33
sg15
I00
sg16
g239
sg22
g23
sa(dp251
g7
g27
sg9
I2251
sg10
g11
sg12
F0.0
sg13
g33
sg15
I00
sg16
g239
sg22
g23
sa(dp252
g7
g8
sg9
I2251
sg10
g11
sg12
F0.0
sg13
g8
sg15
I00
sg16
g239
sg22
g23
sa(dp253
g7
g25
sg9
I2251
sg10
g11
sg12
F0.0
sg13
g8
sg15
I00
sg16
g239
sg22
g23
sa(dp254
g7
g27
sg9
I2251
sg10
g11
sg12
F0.0
sg13
g8
sg15
I00
sg16
g239
sg22
g23
sa(dp255
g7
g8
sg9
I2251
sg10
g11
sg12
F0.0
sg13
g40
sg15
I00
sg16
g239
sg22
g23
sa(dp256
g7
g25
sg9
I2251
sg10
g11
sg12
F0.0
sg13
g40
sg15
I00
sg16
g239
sg22
g23
sa(dp257
g7
g27
sg9
I2251
sg10
g11
sg12
F0.0
sg13
g40
sg15
I00
sg16
g239
sg22
g23
sa(dp258
g7
g8
sg9
I2251
sg10
g11
sg12
F0.0
sg13
g44
sg15
I00
sg16
g239
sg22
g23
sa(dp259
g7
g25
sg9
I2251
sg10
g11
sg12
F0.0
sg13
g44
sg15
I00
sg16
g239
sg22
g23
sa(dp260
g7
g27
sg9
I2251
sg10
g11
sg12
F0.0
sg13
g44
sg15
I00
sg16
g239
sg22
g23
sa(dp261
g7
g48
sg9
I2251
sg10
g49
sg12
F0.0
sg13
g48
sg15
I00
sg16
g239
sg22
g23
sa(dp262
g7
g48
sg9
I1997
sg10
g49
sg12
F0.0
sg13
g48
sg15
I00
sg16
g239
sg22
g23
sa(dp263
g7
g48
sg9
I1850
sg10
g49
sg12
F0.0
sg13
g48
sg15
I00
sg16
g239
sg22
g23
sas.