ccollections
defaultdict
p0
(c__builtin__
list
p1
tp2
Rp3
VDEFAULT TEXTITILING TOKENIZER
p4
(lp5
(dp6
VparamW
p7
VSPACE
p8
sVdim
p9
I2251
sVtipoTest
p10
VPARAMS
p11
sVscore
p12
F0.001479852690677591
sVparamS
p13
VPARAG_2
p14
sVeuristicaNoZero
p15
I01
sVattributiTok
p16
(dp17
Vparams default
p18
(lp19
I20
aI10
aI0
aV//mnt//8tera//shareclic//lucaNgrams//Patrizio//testerTokenizers//dati/stopwordsIdf_metodo_1 val_095.stopWords
p20
a(lp21
I0
aaI2
aI1
aI1
assVfileTest
p22
VNONE - LITE VERSION
p23
sa(dp24
g7
VAFTER
p25
sg9
I2251
sg10
g11
sg12
F0.0003909027204218139
sg13
g14
sg15
I01
sg16
g17
sg22
g23
sa(dp26
g7
VBEFORE
p27
sg9
I2251
sg10
g11
sg12
F0.0003909027204218139
sg13
g14
sg15
I01
sg16
g17
sg22
g23
sa(dp28
g7
g27
sg9
I2251
sg10
g11
sg12
F0.0003909027204218139
sg13
VPARAG
p29
sg15
I01
sg16
g17
sg22
g23
sa(dp30
g7
g27
sg9
I2251
sg10
g11
sg12
F0.0003909027204218139
sg13
VNEW LINE
p31
sg15
I01
sg16
g17
sg22
g23
sas.